target datalayout = "e-m:e-p270:32:32-p271:32:32-p272:64:64-i64:64-i128:128-f80:128-n8:16:32:64-S128"
target triple = "x86_64-pc-linux-gnu"

%class.VNVisitorConst = type { ptr }
%"class.(anonymous namespace)::CodeMotionAnalysisVisitor" = type { %class.VNVisitorConst, ptr, %class.V3Hasher, %"class.std::vector.73", ptr }
%class.V3Hasher = type { %class.VNUser4InUse }
%class.VNUser4InUse = type { i8 }
%"class.std::vector.73" = type { %"struct.std::_Vector_base.74" }
%"struct.std::_Vector_base.74" = type { %"struct.std::_Vector_base<V3DupFinder, std::allocator<V3DupFinder>>::_Vector_impl" }
%"struct.std::_Vector_base<V3DupFinder, std::allocator<V3DupFinder>>::_Vector_impl" = type { %"struct.std::_Vector_base<V3DupFinder, std::allocator<V3DupFinder>>::_Vector_impl_data" }
%"struct.std::_Vector_base<V3DupFinder, std::allocator<V3DupFinder>>::_Vector_impl_data" = type { ptr, ptr, ptr }

@_ZN12VNUser4InUse12s_userCntGblE = external global i32, align 4
@_ZN12VNUser4InUse10s_userBusyE = external global i8, align 1

; Function Attrs: mustprogress nounwind uwtable
define linkonce_odr dso_local void @_ZN12VNUser4InUseD2Ev(ptr noundef nonnull align 1 dereferenceable(1) %0) unnamed_addr #5 comdat align 2 personality ptr @__gxx_personality_v0 {
  %2 = alloca ptr, align 8
  store ptr %0, ptr %2, align 8
  invoke void @_ZN15VNUserInUseBase4freeEiRjRb(i32 noundef 4, ptr noundef nonnull align 4 dereferenceable(4) @_ZN12VNUser4InUse12s_userCntGblE, ptr noundef nonnull align 1 dereferenceable(1) @_ZN12VNUser4InUse10s_userBusyE)
          to label %3 unwind label %4

3:                                                ; preds = %1
  ret void

4:                                                ; preds = %1
  %5 = landingpad { ptr, i32 }
          catch ptr null
  %6 = extractvalue { ptr, i32 } %5, 0
  call void @__clang_call_terminate(ptr %6) #17
  unreachable
}

; Function Attrs: mustprogress nounwind uwtable
define linkonce_odr dso_local void @_ZN14VNVisitorConstD2Ev(ptr noundef nonnull align 8 dereferenceable(8) %0) unnamed_addr #5 comdat align 2 {
  %2 = alloca ptr, align 8
  store ptr %0, ptr %2, align 8
  ret void
}

; Function Attrs: mustprogress nounwind uwtable
define linkonce_odr dso_local void @_ZN8V3HasherD2Ev(ptr noundef nonnull align 1 dereferenceable(1) %0) unnamed_addr #5 comdat align 2 {
  %2 = alloca ptr, align 8
  store ptr %0, ptr %2, align 8
  %3 = load ptr, ptr %2, align 8
  %4 = getelementptr inbounds %class.V3Hasher, ptr %3, i32 0, i32 0
  call void @_ZN12VNUser4InUseD2Ev(ptr noundef nonnull align 1 dereferenceable(1) %4) #3
  ret void
}

; Function Attrs: mustprogress nounwind uwtable
define internal void @_ZN12_GLOBAL__N_125CodeMotionAnalysisVisitorD2Ev(ptr noundef nonnull align 8 dereferenceable(56) %0) unnamed_addr #5 align 2 {
  %2 = alloca ptr, align 8
  store ptr %0, ptr %2, align 8
  %3 = load ptr, ptr %2, align 8
  %4 = getelementptr inbounds %"class.(anonymous namespace)::CodeMotionAnalysisVisitor", ptr %3, i32 0, i32 3
  call void @_ZNSt6vectorI11V3DupFinderSaIS0_EED2Ev(ptr noundef nonnull align 8 dereferenceable(24) %4) #3
  %5 = getelementptr inbounds %"class.(anonymous namespace)::CodeMotionAnalysisVisitor", ptr %3, i32 0, i32 2
  call void @_ZN8V3HasherD2Ev(ptr noundef nonnull align 1 dereferenceable(1) %5) #3
  call void @_ZN14VNVisitorConstD2Ev(ptr noundef nonnull align 8 dereferenceable(8) %3) #3
  ret void
}

; Function Attrs: mustprogress nounwind uwtable
define internal void @_ZN12_GLOBAL__N_125CodeMotionAnalysisVisitorD0Ev(ptr noundef nonnull align 8 dereferenceable(56) %0) unnamed_addr #5 align 2 {
  %2 = alloca ptr, align 8
  store ptr %0, ptr %2, align 8
  %3 = load ptr, ptr %2, align 8
  call void @_ZN12_GLOBAL__N_125CodeMotionAnalysisVisitorD2Ev(ptr noundef nonnull align 8 dereferenceable(56) %3) #3
  call void @_ZdlPv(ptr noundef %3) #19
  ret void
}