; Function Attrs: mustprogress nounwind uwtable
define internal void @_ZN12_GLOBAL__N_125CodeMotionAnalysisVisitorD0Ev(ptr noundef nonnull align 8 dereferenceable(56) %0) unnamed_addr #4 align 2 personality ptr @__gxx_personality_v0 {
  %2 = getelementptr inbounds i8, ptr %0, i64 24
  tail call void @_ZNSt6vectorI11V3DupFinderSaIS0_EED2Ev(ptr noundef nonnull align 8 dereferenceable(24) %2) #23
  invoke void @_ZN15VNUserInUseBase4freeEiRjRb(i32 noundef 4, ptr noundef nonnull align 4 dereferenceable(4) @_ZN12VNUser4InUse12s_userCntGblE, ptr noundef nonnull align 1 dereferenceable(1) @_ZN12VNUser4InUse10s_userBusyE)
          to label %_ZN12_GLOBAL__N_125CodeMotionAnalysisVisitorD2Ev.exit unwind label %3

3:                                                ; preds = %1
  %4 = landingpad { ptr, i32 }
          catch ptr null
  %5 = extractvalue { ptr, i32 } %4, 0
  tail call void @__clang_call_terminate(ptr %5) #26
  unreachable

_ZN12_GLOBAL__N_125CodeMotionAnalysisVisitorD2Ev.exit: ; preds = %1
  tail call void @_ZdlPv(ptr noundef nonnull %0) #25
  ret void
}